target datalayout = "e-m:e-p270:32:32-p271:32:32-p272:64:64-i64:64-i128:128-f80:128-n8:16:32:64-S128"
target triple = "x86_64-pc-linux-gnu"

%union.pthread_mutex_t = type { %struct.__pthread_mutex_s }
%struct.__pthread_mutex_s = type { i32, i32, i32, i32, i32, i16, i16, %struct.__pthread_internal_list }
%struct.__pthread_internal_list = type { ptr, ptr }
%"class.std::basic_ifstream" = type { %"class.std::basic_istream.base", %"class.std::basic_filebuf", %"class.std::basic_ios" }
%"class.std::basic_istream.base" = type { ptr, i64 }
%"class.std::basic_filebuf" = type { %"class.std::basic_streambuf", %union.pthread_mutex_t, %"class.std::__basic_file", i32, %struct.__mbstate_t, %struct.__mbstate_t, %struct.__mbstate_t, ptr, i64, i8, i8, i8, i8, ptr, ptr, i8, ptr, ptr, i64, ptr, ptr }
%"class.std::basic_streambuf" = type { ptr, ptr, ptr, ptr, ptr, ptr, ptr, %"class.std::locale" }
%"class.std::locale" = type { ptr }
%"class.std::__basic_file" = type <{ ptr, i8, [7 x i8] }>
%struct.__mbstate_t = type { i32, %union.anon.4 }
%union.anon.4 = type { i32 }
%"class.std::basic_ios" = type { %"class.std::ios_base", ptr, i8, i8, ptr, ptr, ptr, ptr }
%"class.std::ios_base" = type { ptr, i64, i64, i32, i32, i32, ptr, %"struct.std::ios_base::_Words", [8 x %"struct.std::ios_base::_Words"], i32, ptr, %"class.std::locale" }
%"struct.std::ios_base::_Words" = type { ptr, i64 }
%class.anon = type { ptr, i64, ptr, ptr }
%"class.std::istreambuf_iterator" = type <{ ptr, i32, [4 x i8] }>
%"class.__gnu_cxx::__normal_iterator" = type { ptr }
%"class.__gnu_cxx::__normal_iterator.13" = type { ptr }

@.str.12 = private unnamed_addr constant [12 x i8] c"Not a file.\00", align 1
@.str.33 = private unnamed_addr constant [37 x i8] c"Opening the file for reading failed.\00", align 1
@.str.34 = private unnamed_addr constant [30 x i8] c"Reading from the file failed.\00", align 1

; Function Attrs: mustprogress nounwind uwtable
define linkonce_odr dso_local noundef nonnull align 8 dereferenceable(8) ptr @_ZNK9__gnu_cxx17__normal_iteratorIPcNSt7__cxx1112basic_stringIcSt11char_traitsIcESaIcEEEE4baseEv(ptr noundef nonnull align 8 dereferenceable(8) %0) #5 comdat align 2 {
  %2 = alloca ptr, align 8
  store ptr %0, ptr %2, align 8
  %3 = load ptr, ptr %2, align 8
  %4 = getelementptr inbounds %"class.__gnu_cxx::__normal_iterator.13", ptr %3, i32 0, i32 0
  ret ptr %4
}

; Function Attrs: mustprogress uwtable
define linkonce_odr dso_local noundef nonnull align 8 dereferenceable(32) ptr @_ZNSt7__cxx1112basic_stringIcSt11char_traitsIcESaIcEE7replaceISt19istreambuf_iteratorIcS2_EvEERS4_N9__gnu_cxx17__normal_iteratorIPKcS4_EESD_T_SE_(ptr noundef nonnull align 8 dereferenceable(32) %0, ptr %1, ptr %2, ptr %3, i32 %4, ptr noundef byval(%"class.std::istreambuf_iterator") align 8 %5) #4 comdat align 2 {
  %7 = alloca %"class.__gnu_cxx::__normal_iterator", align 8
  %8 = alloca %"class.__gnu_cxx::__normal_iterator", align 8
  %9 = alloca %"class.std::istreambuf_iterator", align 8
  %10 = alloca ptr, align 8
  %11 = alloca %"class.__gnu_cxx::__normal_iterator", align 8
  %12 = alloca %"class.__gnu_cxx::__normal_iterator", align 8
  %13 = alloca %"class.std::istreambuf_iterator", align 8
  %14 = alloca %"class.std::istreambuf_iterator", align 8
  %15 = getelementptr inbounds %"class.__gnu_cxx::__normal_iterator", ptr %7, i32 0, i32 0
  store ptr %1, ptr %15, align 8
  %16 = getelementptr inbounds %"class.__gnu_cxx::__normal_iterator", ptr %8, i32 0, i32 0
  store ptr %2, ptr %16, align 8
  %17 = getelementptr inbounds { ptr, i32 }, ptr %9, i32 0, i32 0
  store ptr %3, ptr %17, align 8
  %18 = getelementptr inbounds { ptr, i32 }, ptr %9, i32 0, i32 1
  store i32 %4, ptr %18, align 8
  store ptr %0, ptr %10, align 8
  %19 = load ptr, ptr %10, align 8
  call void @llvm.memcpy.p0.p0.i64(ptr align 8 %11, ptr align 8 %7, i64 8, i1 false)
  call void @llvm.memcpy.p0.p0.i64(ptr align 8 %12, ptr align 8 %8, i64 8, i1 false)
  call void @llvm.memcpy.p0.p0.i64(ptr align 8 %13, ptr align 8 %9, i64 16, i1 false)
  call void @llvm.memcpy.p0.p0.i64(ptr align 8 %14, ptr align 8 %5, i64 16, i1 false)
  %20 = getelementptr inbounds %"class.__gnu_cxx::__normal_iterator", ptr %11, i32 0, i32 0
  %21 = load ptr, ptr %20, align 8
  %22 = getelementptr inbounds %"class.__gnu_cxx::__normal_iterator", ptr %12, i32 0, i32 0
  %23 = load ptr, ptr %22, align 8
  %24 = getelementptr inbounds { ptr, i32 }, ptr %13, i32 0, i32 0
  %25 = load ptr, ptr %24, align 8
  %26 = getelementptr inbounds { ptr, i32 }, ptr %13, i32 0, i32 1
  %27 = load i32, ptr %26, align 8
  %28 = call noundef nonnull align 8 dereferenceable(32) ptr @_ZNSt7__cxx1112basic_stringIcSt11char_traitsIcESaIcEE19_M_replace_dispatchISt19istreambuf_iteratorIcS2_EEERS4_N9__gnu_cxx17__normal_iteratorIPKcS4_EESD_T_SE_St12__false_type(ptr noundef nonnull align 8 dereferenceable(32) %19, ptr %21, ptr %23, ptr %25, i32 %27, ptr noundef byval(%"class.std::istreambuf_iterator") align 8 %14)
  ret ptr %28
}

; Function Attrs: mustprogress nounwind uwtable
define linkonce_odr dso_local void @_ZN9__gnu_cxx17__normal_iteratorIPKcNSt7__cxx1112basic_stringIcSt11char_traitsIcESaIcEEEEC2IPcvEERKNS0_IT_S8_EE(ptr noundef nonnull align 8 dereferenceable(8) %0, ptr noundef nonnull align 8 dereferenceable(8) %1) unnamed_addr #5 comdat align 2 {
  %3 = alloca ptr, align 8
  %4 = alloca ptr, align 8
  store ptr %0, ptr %3, align 8
  store ptr %1, ptr %4, align 8
  %5 = load ptr, ptr %3, align 8
  %6 = getelementptr inbounds %"class.__gnu_cxx::__normal_iterator", ptr %5, i32 0, i32 0
  %7 = load ptr, ptr %4, align 8
  %8 = call noundef nonnull align 8 dereferenceable(8) ptr @_ZNK9__gnu_cxx17__normal_iteratorIPcNSt7__cxx1112basic_stringIcSt11char_traitsIcESaIcEEEE4baseEv(ptr noundef nonnull align 8 dereferenceable(8) %7) #3
  %9 = load ptr, ptr %8, align 8
  store ptr %9, ptr %6, align 8
  ret void
}

; Function Attrs: mustprogress nounwind uwtable
define linkonce_odr dso_local noundef i32 @_ZNSt11char_traitsIcE3eofEv() #5 comdat align 2 {
  ret i32 -1
}

; Function Attrs: mustprogress uwtable
define linkonce_odr dso_local noundef nonnull align 8 dereferenceable(32) ptr @_ZNSt7__cxx1112basic_stringIcSt11char_traitsIcESaIcEE6assignISt19istreambuf_iteratorIcS2_EvEERS4_T_S9_(ptr noundef nonnull align 8 dereferenceable(32) %0, ptr %1, i32 %2, ptr %3, i32 %4) #4 comdat align 2 {
  %6 = alloca %"class.std::istreambuf_iterator", align 8
  %7 = alloca %"class.std::istreambuf_iterator", align 8
  %8 = alloca ptr, align 8
  %9 = alloca %"class.__gnu_cxx::__normal_iterator", align 8
  %10 = alloca %"class.__gnu_cxx::__normal_iterator.13", align 8
  %11 = alloca %"class.__gnu_cxx::__normal_iterator", align 8
  %12 = alloca %"class.__gnu_cxx::__normal_iterator.13", align 8
  %13 = alloca %"class.std::istreambuf_iterator", align 8
  %14 = alloca %"class.std::istreambuf_iterator", align 8
  %15 = getelementptr inbounds { ptr, i32 }, ptr %6, i32 0, i32 0
  store ptr %1, ptr %15, align 8
  %16 = getelementptr inbounds { ptr, i32 }, ptr %6, i32 0, i32 1
  store i32 %2, ptr %16, align 8
  %17 = getelementptr inbounds { ptr, i32 }, ptr %7, i32 0, i32 0
  store ptr %3, ptr %17, align 8
  %18 = getelementptr inbounds { ptr, i32 }, ptr %7, i32 0, i32 1
  store i32 %4, ptr %18, align 8
  store ptr %0, ptr %8, align 8
  %19 = load ptr, ptr %8, align 8
  %20 = call ptr @_ZNSt7__cxx1112basic_stringIcSt11char_traitsIcESaIcEE5beginEv(ptr noundef nonnull align 8 dereferenceable(32) %19) #3
  %21 = getelementptr inbounds %"class.__gnu_cxx::__normal_iterator.13", ptr %10, i32 0, i32 0
  store ptr %20, ptr %21, align 8
  call void @_ZN9__gnu_cxx17__normal_iteratorIPKcNSt7__cxx1112basic_stringIcSt11char_traitsIcESaIcEEEEC2IPcvEERKNS0_IT_S8_EE(ptr noundef nonnull align 8 dereferenceable(8) %9, ptr noundef nonnull align 8 dereferenceable(8) %10) #3
  %22 = call ptr @_ZNSt7__cxx1112basic_stringIcSt11char_traitsIcESaIcEE3endEv(ptr noundef nonnull align 8 dereferenceable(32) %19) #3
  %23 = getelementptr inbounds %"class.__gnu_cxx::__normal_iterator.13", ptr %12, i32 0, i32 0
  store ptr %22, ptr %23, align 8
  call void @_ZN9__gnu_cxx17__normal_iteratorIPKcNSt7__cxx1112basic_stringIcSt11char_traitsIcESaIcEEEEC2IPcvEERKNS0_IT_S8_EE(ptr noundef nonnull align 8 dereferenceable(8) %11, ptr noundef nonnull align 8 dereferenceable(8) %12) #3
  call void @llvm.memcpy.p0.p0.i64(ptr align 8 %13, ptr align 8 %6, i64 16, i1 false)
  call void @llvm.memcpy.p0.p0.i64(ptr align 8 %14, ptr align 8 %7, i64 16, i1 false)
  %24 = getelementptr inbounds %"class.__gnu_cxx::__normal_iterator", ptr %9, i32 0, i32 0
  %25 = load ptr, ptr %24, align 8
  %26 = getelementptr inbounds %"class.__gnu_cxx::__normal_iterator", ptr %11, i32 0, i32 0
  %27 = load ptr, ptr %26, align 8
  %28 = getelementptr inbounds { ptr, i32 }, ptr %13, i32 0, i32 0
  %29 = load ptr, ptr %28, align 8
  %30 = getelementptr inbounds { ptr, i32 }, ptr %13, i32 0, i32 1
  %31 = load i32, ptr %30, align 8
  %32 = call noundef nonnull align 8 dereferenceable(32) ptr @_ZNSt7__cxx1112basic_stringIcSt11char_traitsIcESaIcEE7replaceISt19istreambuf_iteratorIcS2_EvEERS4_N9__gnu_cxx17__normal_iteratorIPKcS4_EESD_T_SE_(ptr noundef nonnull align 8 dereferenceable(32) %19, ptr %25, ptr %27, ptr %29, i32 %31, ptr noundef byval(%"class.std::istreambuf_iterator") align 8 %14)
  ret ptr %32
}

; Function Attrs: mustprogress nounwind uwtable
define linkonce_odr dso_local void @_ZNSt19istreambuf_iteratorIcSt11char_traitsIcEEC2Ev(ptr noundef nonnull align 8 dereferenceable(12) %0) unnamed_addr #5 comdat align 2 {
  %2 = alloca ptr, align 8
  store ptr %0, ptr %2, align 8
  %3 = load ptr, ptr %2, align 8
  %4 = getelementptr inbounds %"class.std::istreambuf_iterator", ptr %3, i32 0, i32 0
  store ptr null, ptr %4, align 8
  %5 = getelementptr inbounds %"class.std::istreambuf_iterator", ptr %3, i32 0, i32 1
  %6 = call noundef i32 @_ZNSt11char_traitsIcE3eofEv() #3
  store i32 %6, ptr %5, align 8
  ret void
}

; Function Attrs: mustprogress nounwind uwtable
define linkonce_odr dso_local void @_ZNSt19istreambuf_iteratorIcSt11char_traitsIcEEC2ERSi(ptr noundef nonnull align 8 dereferenceable(12) %0, ptr noundef nonnull align 8 dereferenceable(16) %1) unnamed_addr #5 comdat align 2 personality ptr @__gxx_personality_v0 {
  %3 = alloca ptr, align 8
  %4 = alloca ptr, align 8
  store ptr %0, ptr %3, align 8
  store ptr %1, ptr %4, align 8
  %5 = load ptr, ptr %3, align 8
  %6 = getelementptr inbounds %"class.std::istreambuf_iterator", ptr %5, i32 0, i32 0
  %7 = load ptr, ptr %4, align 8
  %8 = load ptr, ptr %7, align 8
  %9 = getelementptr i8, ptr %8, i64 -24
  %10 = load i64, ptr %9, align 8
  %11 = getelementptr inbounds i8, ptr %7, i64 %10
  %12 = invoke noundef ptr @_ZNKSt9basic_iosIcSt11char_traitsIcEE5rdbufEv(ptr noundef nonnull align 8 dereferenceable(264) %11)
          to label %13 unwind label %16

13:                                               ; preds = %2
  store ptr %12, ptr %6, align 8
  %14 = getelementptr inbounds %"class.std::istreambuf_iterator", ptr %5, i32 0, i32 1
  %15 = call noundef i32 @_ZNSt11char_traitsIcE3eofEv() #3
  store i32 %15, ptr %14, align 8
  ret void

16:                                               ; preds = %2
  %17 = landingpad { ptr, i32 }
          catch ptr null
  %18 = extractvalue { ptr, i32 } %17, 0
  call void @__clang_call_terminate(ptr %18) #14
  unreachable
}

; Function Attrs: mustprogress uwtable
define internal noundef zeroext i1 @"_ZZN17cmQtAutoGenerator8FileReadERNSt7__cxx1112basic_stringIcSt11char_traitsIcESaIcEEERKS5_PS5_ENK3$_0clEv"(ptr noundef nonnull align 8 dereferenceable(32) %0) #4 align 2 {
  %2 = alloca i1, align 1
  %3 = alloca ptr, align 8
  %4 = alloca %"class.std::istreambuf_iterator", align 8
  %5 = alloca %"class.std::istreambuf_iterator", align 8
  store ptr %0, ptr %3, align 8
  %6 = load ptr, ptr %3, align 8
  %7 = getelementptr inbounds %class.anon, ptr %6, i32 0, i32 0
  %8 = load ptr, ptr %7, align 8
  %9 = load ptr, ptr %8, align 8
  %10 = getelementptr i8, ptr %9, i64 -24
  %11 = load i64, ptr %10, align 8
  %12 = getelementptr inbounds i8, ptr %8, i64 %11
  %13 = call noundef zeroext i1 @_ZNKSt9basic_iosIcSt11char_traitsIcEEntEv(ptr noundef nonnull align 8 dereferenceable(264) %12)
  br i1 %13, label %14, label %23

14:                                               ; preds = %1
  %15 = getelementptr inbounds %class.anon, ptr %6, i32 0, i32 3
  %16 = load ptr, ptr %15, align 8
  %17 = icmp ne ptr %16, null
  br i1 %17, label %18, label %22

18:                                               ; preds = %14
  %19 = getelementptr inbounds %class.anon, ptr %6, i32 0, i32 3
  %20 = load ptr, ptr %19, align 8
  %21 = call noundef nonnull align 8 dereferenceable(32) ptr @_ZNSt7__cxx1112basic_stringIcSt11char_traitsIcESaIcEEaSEPKc(ptr noundef nonnull align 8 dereferenceable(32) %20, ptr noundef @.str.33)
  br label %22

22:                                               ; preds = %18, %14
  store i1 false, ptr %2, align 1
  br label %60

23:                                               ; preds = %1
  %24 = getelementptr inbounds %class.anon, ptr %6, i32 0, i32 2
  %25 = load ptr, ptr %24, align 8
  %26 = getelementptr inbounds %class.anon, ptr %6, i32 0, i32 1
  %27 = load i64, ptr %26, align 8
  call void @_ZNSt7__cxx1112basic_stringIcSt11char_traitsIcESaIcEE7reserveEm(ptr noundef nonnull align 8 dereferenceable(32) %25, i64 noundef %27)
  %28 = getelementptr inbounds %class.anon, ptr %6, i32 0, i32 2
  %29 = load ptr, ptr %28, align 8
  %30 = getelementptr inbounds %class.anon, ptr %6, i32 0, i32 0
  %31 = load ptr, ptr %30, align 8
  call void @_ZNSt19istreambuf_iteratorIcSt11char_traitsIcEEC2ERSi(ptr noundef nonnull align 8 dereferenceable(12) %4, ptr noundef nonnull align 8 dereferenceable(16) %31) #3
  call void @_ZNSt19istreambuf_iteratorIcSt11char_traitsIcEEC2Ev(ptr noundef nonnull align 8 dereferenceable(12) %5) #3
  %32 = getelementptr inbounds { ptr, i32 }, ptr %4, i32 0, i32 0
  %33 = load ptr, ptr %32, align 8
  %34 = getelementptr inbounds { ptr, i32 }, ptr %4, i32 0, i32 1
  %35 = load i32, ptr %34, align 8
  %36 = getelementptr inbounds { ptr, i32 }, ptr %5, i32 0, i32 0
  %37 = load ptr, ptr %36, align 8
  %38 = getelementptr inbounds { ptr, i32 }, ptr %5, i32 0, i32 1
  %39 = load i32, ptr %38, align 8
  %40 = call noundef nonnull align 8 dereferenceable(32) ptr @_ZNSt7__cxx1112basic_stringIcSt11char_traitsIcESaIcEE6assignISt19istreambuf_iteratorIcS2_EvEERS4_T_S9_(ptr noundef nonnull align 8 dereferenceable(32) %29, ptr %33, i32 %35, ptr %37, i32 %39)
  %41 = getelementptr inbounds %class.anon, ptr %6, i32 0, i32 0
  %42 = load ptr, ptr %41, align 8
  %43 = load ptr, ptr %42, align 8
  %44 = getelementptr i8, ptr %43, i64 -24
  %45 = load i64, ptr %44, align 8
  %46 = getelementptr inbounds i8, ptr %42, i64 %45
  %47 = call noundef zeroext i1 @_ZNKSt9basic_iosIcSt11char_traitsIcEEntEv(ptr noundef nonnull align 8 dereferenceable(264) %46)
  br i1 %47, label %48, label %59

48:                                               ; preds = %23
  %49 = getelementptr inbounds %class.anon, ptr %6, i32 0, i32 2
  %50 = load ptr, ptr %49, align 8
  call void @_ZNSt7__cxx1112basic_stringIcSt11char_traitsIcESaIcEE5clearEv(ptr noundef nonnull align 8 dereferenceable(32) %50) #3
  %51 = getelementptr inbounds %class.anon, ptr %6, i32 0, i32 3
  %52 = load ptr, ptr %51, align 8
  %53 = icmp ne ptr %52, null
  br i1 %53, label %54, label %58

54:                                               ; preds = %48
  %55 = getelementptr inbounds %class.anon, ptr %6, i32 0, i32 3
  %56 = load ptr, ptr %55, align 8
  %57 = call noundef nonnull align 8 dereferenceable(32) ptr @_ZNSt7__cxx1112basic_stringIcSt11char_traitsIcESaIcEEaSEPKc(ptr noundef nonnull align 8 dereferenceable(32) %56, ptr noundef @.str.34)
  br label %58

58:                                               ; preds = %54, %48
  store i1 false, ptr %2, align 1
  br label %60

59:                                               ; preds = %23
  store i1 true, ptr %2, align 1
  br label %60

60:                                               ; preds = %59, %58, %22
  %61 = load i1, ptr %2, align 1
  ret i1 %61
}

; Function Attrs: mustprogress nounwind uwtable
define linkonce_odr dso_local noundef i32 @_ZStorSt13_Ios_OpenmodeS_(i32 noundef %0, i32 noundef %1) #5 comdat {
  %3 = alloca i32, align 4
  %4 = alloca i32, align 4
  store i32 %0, ptr %3, align 4
  store i32 %1, ptr %4, align 4
  %5 = load i32, ptr %3, align 4
  %6 = load i32, ptr %4, align 4
  %7 = or i32 %5, %6
  ret i32 %7
}

; Function Attrs: mustprogress uwtable
define dso_local noundef zeroext i1 @_ZN17cmQtAutoGenerator8FileReadERNSt7__cxx1112basic_stringIcSt11char_traitsIcESaIcEEERKS5_PS5_(ptr noundef nonnull align 8 dereferenceable(32) %0, ptr noundef nonnull align 8 dereferenceable(32) %1, ptr noundef %2) #4 align 2 personality ptr @__gxx_personality_v0 {
  %4 = alloca i1, align 1
  %5 = alloca ptr, align 8
  %6 = alloca ptr, align 8
  %7 = alloca ptr, align 8
  %8 = alloca i64, align 8
  %9 = alloca %"class.std::basic_ifstream", align 8
  %10 = alloca %class.anon, align 8
  %11 = alloca ptr, align 8
  %12 = alloca i32, align 4
  store ptr %0, ptr %5, align 8
  store ptr %1, ptr %6, align 8
  store ptr %2, ptr %7, align 8
  %13 = load ptr, ptr %5, align 8
  call void @_ZNSt7__cxx1112basic_stringIcSt11char_traitsIcESaIcEE5clearEv(ptr noundef nonnull align 8 dereferenceable(32) %13) #3
  %14 = load ptr, ptr %6, align 8
  %15 = call noundef zeroext i1 @_ZN5cmsys11SystemTools10FileExistsERKNSt7__cxx1112basic_stringIcSt11char_traitsIcESaIcEEEb(ptr noundef nonnull align 8 dereferenceable(32) %14, i1 noundef zeroext true)
  br i1 %15, label %23, label %16

16:                                               ; preds = %3
  %17 = load ptr, ptr %7, align 8
  %18 = icmp ne ptr %17, null
  br i1 %18, label %19, label %22

19:                                               ; preds = %16
  %20 = load ptr, ptr %7, align 8
  %21 = call noundef nonnull align 8 dereferenceable(32) ptr @_ZNSt7__cxx1112basic_stringIcSt11char_traitsIcESaIcEEaSEPKc(ptr noundef nonnull align 8 dereferenceable(32) %20, ptr noundef @.str.12)
  br label %22

22:                                               ; preds = %19, %16
  store i1 false, ptr %4, align 1
  br label %42

23:                                               ; preds = %3
  %24 = load ptr, ptr %6, align 8
  %25 = call noundef i64 @_ZN5cmsys11SystemTools10FileLengthERKNSt7__cxx1112basic_stringIcSt11char_traitsIcESaIcEEE(ptr noundef nonnull align 8 dereferenceable(32) %24)
  store i64 %25, ptr %8, align 8
  %26 = load ptr, ptr %6, align 8
  %27 = call noundef ptr @_ZNKSt7__cxx1112basic_stringIcSt11char_traitsIcESaIcEE5c_strEv(ptr noundef nonnull align 8 dereferenceable(32) %26) #3
  %28 = call noundef i32 @_ZStorSt13_Ios_OpenmodeS_(i32 noundef 8, i32 noundef 4)
  call void @_ZNSt14basic_ifstreamIcSt11char_traitsIcEEC1EPKcSt13_Ios_Openmode(ptr noundef nonnull align 8 dereferenceable(256) %9, ptr noundef %27, i32 noundef %28)
  %29 = getelementptr inbounds %class.anon, ptr %10, i32 0, i32 0
  store ptr %9, ptr %29, align 8
  %30 = getelementptr inbounds %class.anon, ptr %10, i32 0, i32 1
  %31 = load i64, ptr %8, align 8
  store i64 %31, ptr %30, align 8
  %32 = getelementptr inbounds %class.anon, ptr %10, i32 0, i32 2
  %33 = load ptr, ptr %5, align 8
  store ptr %33, ptr %32, align 8
  %34 = getelementptr inbounds %class.anon, ptr %10, i32 0, i32 3
  %35 = load ptr, ptr %7, align 8
  store ptr %35, ptr %34, align 8
  %36 = invoke noundef zeroext i1 @"_ZZN17cmQtAutoGenerator8FileReadERNSt7__cxx1112basic_stringIcSt11char_traitsIcESaIcEEERKS5_PS5_ENK3$_0clEv"(ptr noundef nonnull align 8 dereferenceable(32) %10)
          to label %37 unwind label %38

37:                                               ; preds = %23
  store i1 %36, ptr %4, align 1
  call void @_ZNSt14basic_ifstreamIcSt11char_traitsIcEED1Ev(ptr noundef nonnull align 8 dereferenceable(256) %9) #3
  br label %42

38:                                               ; preds = %23
  %39 = landingpad { ptr, i32 }
          cleanup
  %40 = extractvalue { ptr, i32 } %39, 0
  store ptr %40, ptr %11, align 8
  %41 = extractvalue { ptr, i32 } %39, 1
  store i32 %41, ptr %12, align 4
  call void @_ZNSt14basic_ifstreamIcSt11char_traitsIcEED1Ev(ptr noundef nonnull align 8 dereferenceable(256) %9) #3
  br label %44

42:                                               ; preds = %37, %22
  %43 = load i1, ptr %4, align 1
  ret i1 %43

44:                                               ; preds = %38
  %45 = load ptr, ptr %11, align 8
  %46 = load i32, ptr %12, align 4
  %47 = insertvalue { ptr, i32 } poison, ptr %45, 0
  %48 = insertvalue { ptr, i32 } %47, i32 %46, 1
  resume { ptr, i32 } %48
}