; Function Attrs: mustprogress uwtable
define dso_local noundef zeroext i1 @_ZN17cmQtAutoGenerator8FileReadERNSt7__cxx1112basic_stringIcSt11char_traitsIcESaIcEEERKS5_PS5_(ptr noundef nonnull align 8 dereferenceable(32) %0, ptr noundef nonnull align 8 dereferenceable(32) %1, ptr noundef %2) local_unnamed_addr #3 align 2 personality ptr @__gxx_personality_v0 {
  %4 = alloca %"class.std::istreambuf_iterator", align 8
  %5 = alloca %"class.std::basic_ifstream", align 8
  tail call void @_ZNSt7__cxx1112basic_stringIcSt11char_traitsIcESaIcEE5clearEv(ptr noundef nonnull align 8 dereferenceable(32) %0) #21
  %6 = tail call noundef zeroext i1 @_ZN5cmsys11SystemTools10FileExistsERKNSt7__cxx1112basic_stringIcSt11char_traitsIcESaIcEEEb(ptr noundef nonnull align 8 dereferenceable(32) %1, i1 noundef zeroext true)
  br i1 %6, label %10, label %7

7:                                                ; preds = %3
  %.not = icmp eq ptr %2, null
  br i1 %.not, label %41, label %8

8:                                                ; preds = %7
  %9 = tail call noundef nonnull align 8 dereferenceable(32) ptr @_ZNSt7__cxx1112basic_stringIcSt11char_traitsIcESaIcEEaSEPKc(ptr noundef nonnull align 8 dereferenceable(32) %2, ptr noundef nonnull @.str.12)
  br label %41

10:                                               ; preds = %3
  %11 = tail call noundef i64 @_ZN5cmsys11SystemTools10FileLengthERKNSt7__cxx1112basic_stringIcSt11char_traitsIcESaIcEEE(ptr noundef nonnull align 8 dereferenceable(32) %1)
  %12 = tail call noundef ptr @_ZNKSt7__cxx1112basic_stringIcSt11char_traitsIcESaIcEE5c_strEv(ptr noundef nonnull align 8 dereferenceable(32) %1) #21
  call void @_ZNSt14basic_ifstreamIcSt11char_traitsIcEEC1EPKcSt13_Ios_Openmode(ptr noundef nonnull align 8 dereferenceable(256) %5, ptr noundef %12, i32 noundef 12)
  %13 = load ptr, ptr %5, align 8
  %14 = getelementptr i8, ptr %13, i64 -24
  %15 = load i64, ptr %14, align 8
  %16 = getelementptr inbounds i8, ptr %5, i64 %15
  %17 = invoke noundef zeroext i1 @_ZNKSt9basic_iosIcSt11char_traitsIcEEntEv(ptr noundef nonnull align 8 dereferenceable(264) %16)
          to label %.noexc unwind label %39

.noexc:                                           ; preds = %10
  br i1 %17, label %18, label %19

18:                                               ; preds = %.noexc
  %.not4.i = icmp eq ptr %2, null
  br i1 %.not4.i, label %"_ZZN17cmQtAutoGenerator8FileReadERNSt7__cxx1112basic_stringIcSt11char_traitsIcESaIcEEERKS5_PS5_ENK3$_0clEv.exit", label %.invoke

19:                                               ; preds = %.noexc
  invoke void @_ZNSt7__cxx1112basic_stringIcSt11char_traitsIcESaIcEE7reserveEm(ptr noundef nonnull align 8 dereferenceable(32) %0, i64 noundef %11)
          to label %.noexc13 unwind label %39

.noexc13:                                         ; preds = %19
  %20 = load ptr, ptr %5, align 8
  %21 = getelementptr i8, ptr %20, i64 -24
  %22 = load i64, ptr %21, align 8
  %23 = getelementptr inbounds i8, ptr %5, i64 %22
  %24 = invoke noundef ptr @_ZNKSt9basic_iosIcSt11char_traitsIcEE5rdbufEv(ptr noundef nonnull align 8 dereferenceable(264) %23)
          to label %_ZNSt19istreambuf_iteratorIcSt11char_traitsIcEEC2ERSi.exit.i unwind label %25

25:                                               ; preds = %.noexc13
  %26 = landingpad { ptr, i32 }
          catch ptr null
  %27 = extractvalue { ptr, i32 } %26, 0
  call void @__clang_call_terminate(ptr %27) #23
  unreachable

_ZNSt19istreambuf_iteratorIcSt11char_traitsIcEEC2ERSi.exit.i: ; preds = %.noexc13
  %28 = call ptr @_ZNSt7__cxx1112basic_stringIcSt11char_traitsIcESaIcEE5beginEv(ptr noundef nonnull align 8 dereferenceable(32) %0) #21
  %29 = call ptr @_ZNSt7__cxx1112basic_stringIcSt11char_traitsIcESaIcEE3endEv(ptr noundef nonnull align 8 dereferenceable(32) %0) #21
  call void @llvm.lifetime.start.p0(i64 16, ptr nonnull %4)
  store ptr null, ptr %4, align 8
  %.sroa.2.0..sroa_idx.i.i = getelementptr inbounds i8, ptr %4, i64 8
  store i32 -1, ptr %.sroa.2.0..sroa_idx.i.i, align 8
  %30 = invoke noundef nonnull align 8 dereferenceable(32) ptr @_ZNSt7__cxx1112basic_stringIcSt11char_traitsIcESaIcEE19_M_replace_dispatchISt19istreambuf_iteratorIcS2_EEERS4_N9__gnu_cxx17__normal_iteratorIPKcS4_EESD_T_SE_St12__false_type(ptr noundef nonnull align 8 dereferenceable(32) %0, ptr %28, ptr %29, ptr %24, i32 -1, ptr noundef nonnull byval(%"class.std::istreambuf_iterator") align 8 %4)
          to label %.noexc14 unwind label %39

.noexc14:                                         ; preds = %_ZNSt19istreambuf_iteratorIcSt11char_traitsIcEEC2ERSi.exit.i
  call void @llvm.lifetime.end.p0(i64 16, ptr nonnull %4)
  %31 = load ptr, ptr %5, align 8
  %32 = getelementptr i8, ptr %31, i64 -24
  %33 = load i64, ptr %32, align 8
  %34 = getelementptr inbounds i8, ptr %5, i64 %33
  %35 = invoke noundef zeroext i1 @_ZNKSt9basic_iosIcSt11char_traitsIcEEntEv(ptr noundef nonnull align 8 dereferenceable(264) %34)
          to label %.noexc15 unwind label %39

.noexc15:                                         ; preds = %.noexc14
  br i1 %35, label %36, label %"_ZZN17cmQtAutoGenerator8FileReadERNSt7__cxx1112basic_stringIcSt11char_traitsIcESaIcEEERKS5_PS5_ENK3$_0clEv.exit"

36:                                               ; preds = %.noexc15
  call void @_ZNSt7__cxx1112basic_stringIcSt11char_traitsIcESaIcEE5clearEv(ptr noundef nonnull align 8 dereferenceable(32) %0) #21
  %.not.i = icmp eq ptr %2, null
  br i1 %.not.i, label %"_ZZN17cmQtAutoGenerator8FileReadERNSt7__cxx1112basic_stringIcSt11char_traitsIcESaIcEEERKS5_PS5_ENK3$_0clEv.exit", label %.invoke

.invoke:                                          ; preds = %36, %18
  %37 = phi ptr [ @.str.33, %18 ], [ @.str.34, %36 ]
  %38 = invoke noundef nonnull align 8 dereferenceable(32) ptr @_ZNSt7__cxx1112basic_stringIcSt11char_traitsIcESaIcEEaSEPKc(ptr noundef nonnull align 8 dereferenceable(32) %2, ptr noundef nonnull %37)
          to label %"_ZZN17cmQtAutoGenerator8FileReadERNSt7__cxx1112basic_stringIcSt11char_traitsIcESaIcEEERKS5_PS5_ENK3$_0clEv.exit" unwind label %39

"_ZZN17cmQtAutoGenerator8FileReadERNSt7__cxx1112basic_stringIcSt11char_traitsIcESaIcEEERKS5_PS5_ENK3$_0clEv.exit": ; preds = %.invoke, %36, %.noexc15, %18
  %.0.i = phi i1 [ false, %18 ], [ false, %36 ], [ true, %.noexc15 ], [ false, %.invoke ]
  call void @_ZNSt14basic_ifstreamIcSt11char_traitsIcEED1Ev(ptr noundef nonnull align 8 dereferenceable(256) %5) #21
  br label %41

39:                                               ; preds = %.invoke, %.noexc14, %_ZNSt19istreambuf_iteratorIcSt11char_traitsIcEEC2ERSi.exit.i, %19, %10
  %40 = landingpad { ptr, i32 }
          cleanup
  call void @_ZNSt14basic_ifstreamIcSt11char_traitsIcEED1Ev(ptr noundef nonnull align 8 dereferenceable(256) %5) #21
  resume { ptr, i32 } %40

41:                                               ; preds = %7, %8, %"_ZZN17cmQtAutoGenerator8FileReadERNSt7__cxx1112basic_stringIcSt11char_traitsIcESaIcEEERKS5_PS5_ENK3$_0clEv.exit"
  %.0 = phi i1 [ %.0.i, %"_ZZN17cmQtAutoGenerator8FileReadERNSt7__cxx1112basic_stringIcSt11char_traitsIcESaIcEEERKS5_PS5_ENK3$_0clEv.exit" ], [ false, %8 ], [ false, %7 ]
  ret i1 %.0
}